; Function Attrs: mustprogress uwtable
define hidden void @_ZN11state_graph14mark_live_coreEj(ptr noundef nonnull align 8 dereferenceable(152) %0, i32 noundef %1) local_unnamed_addr #3 align 2 {
  %3 = getelementptr inbounds nuw i8, ptr %0, i64 16
  %4 = lshr i32 %1, 5
  %5 = load ptr, ptr %3, align 8, !tbaa !3
  %6 = icmp eq ptr %5, null
  br i1 %6, label %_ZN8uint_set6removeEj.exit, label %_ZNK6vectorIjLb0EjE4sizeEv.exit.i

_ZNK6vectorIjLb0EjE4sizeEv.exit.i:                ; preds = %2
  %7 = getelementptr inbounds i8, ptr %5, i64 -4
  %8 = load i32, ptr %7, align 4, !tbaa !9
  %9 = icmp ult i32 %4, %8
  br i1 %9, label %10, label %_ZN8uint_set6removeEj.exit

10:                                               ; preds = %_ZNK6vectorIjLb0EjE4sizeEv.exit.i
  %11 = and i32 %1, 31
  %12 = shl nuw i32 1, %11
  %13 = xor i32 %12, -1
  %14 = zext nneg i32 %4 to i64
  %15 = getelementptr inbounds nuw i32, ptr %5, i64 %14
  %16 = load i32, ptr %15, align 4, !tbaa !9
  %17 = and i32 %16, %13
  store i32 %17, ptr %15, align 4, !tbaa !9
  br label %_ZN8uint_set6removeEj.exit

_ZN8uint_set6removeEj.exit:                       ; preds = %2, %_ZNK6vectorIjLb0EjE4sizeEv.exit.i, %10
  %18 = load ptr, ptr %0, align 8, !tbaa !3
  %19 = icmp eq ptr %18, null
  br i1 %19, label %thread-pre-split.i.i.preheader, label %_ZNK6vectorIjLb0EjE4sizeEv.exit.i2

_ZNK6vectorIjLb0EjE4sizeEv.exit.i2:               ; preds = %_ZN8uint_set6removeEj.exit
  %20 = getelementptr inbounds i8, ptr %18, i64 -4
  %21 = load i32, ptr %20, align 4, !tbaa !9
  %.not.i = icmp ult i32 %4, %21
  br i1 %.not.i, label %_ZN8uint_set6insertEj.exit, label %thread-pre-split.i.i.preheader

thread-pre-split.i.i.preheader:                   ; preds = %_ZNK6vectorIjLb0EjE4sizeEv.exit.i2, %_ZN8uint_set6removeEj.exit
  %.ph = phi ptr [ null, %_ZN8uint_set6removeEj.exit ], [ %18, %_ZNK6vectorIjLb0EjE4sizeEv.exit.i2 ]
  %.0.i16.i.i.ph = phi i32 [ 0, %_ZN8uint_set6removeEj.exit ], [ %21, %_ZNK6vectorIjLb0EjE4sizeEv.exit.i2 ]
  %.ph3 = add nuw nsw i32 %4, 1
  br label %thread-pre-split.i.i

thread-pre-split.i.i:                             ; preds = %thread-pre-split.i.i.preheader, %_ZNK6vectorIjLb0EjE8capacityEv.exit.thread.i.i
  %22 = phi ptr [ %.pr.pre.i.i, %_ZNK6vectorIjLb0EjE8capacityEv.exit.thread.i.i ], [ %.ph, %thread-pre-split.i.i.preheader ]
  %23 = icmp eq ptr %22, null
  br i1 %23, label %_ZNK6vectorIjLb0EjE8capacityEv.exit.thread.i.i, label %_ZNK6vectorIjLb0EjE8capacityEv.exit.i.i

_ZNK6vectorIjLb0EjE8capacityEv.exit.i.i:          ; preds = %thread-pre-split.i.i
  %24 = getelementptr inbounds i8, ptr %22, i64 -8
  %25 = load i32, ptr %24, align 4, !tbaa !9
  %.not = icmp ult i32 %4, %25
  br i1 %.not, label %26, label %_ZNK6vectorIjLb0EjE8capacityEv.exit.thread.i.i

_ZNK6vectorIjLb0EjE8capacityEv.exit.thread.i.i:   ; preds = %_ZNK6vectorIjLb0EjE8capacityEv.exit.i.i, %thread-pre-split.i.i
  tail call void @_ZN6vectorIjLb0EjE13expand_vectorEv(ptr noundef nonnull align 8 dereferenceable(8) %0)
  %.pr.pre.i.i = load ptr, ptr %0, align 8, !tbaa !3
  br label %thread-pre-split.i.i, !llvm.loop !13

26:                                               ; preds = %_ZNK6vectorIjLb0EjE8capacityEv.exit.i.i
  %27 = getelementptr inbounds i8, ptr %22, i64 -4
  store i32 %.ph3, ptr %27, align 4, !tbaa !9
  %.not1218.i.i = icmp eq i32 %.0.i16.i.i.ph, %.ph3
  br i1 %.not1218.i.i, label %_ZN8uint_set6insertEj.exit, label %.lr.ph.preheader.i.i

.lr.ph.preheader.i.i:                             ; preds = %26
  %28 = zext nneg i32 %.ph3 to i64
  %29 = zext i32 %.0.i16.i.i.ph to i64
  %30 = getelementptr i32, ptr %22, i64 %29
  %31 = sub nsw i64 %28, %29
  %32 = shl nsw i64 %31, 2
  tail call void @llvm.memset.p0.i64(ptr align 4 %30, i8 0, i64 %32, i1 false), !tbaa !9
  br label %_ZN8uint_set6insertEj.exit

_ZN8uint_set6insertEj.exit:                       ; preds = %_ZNK6vectorIjLb0EjE4sizeEv.exit.i2, %26, %.lr.ph.preheader.i.i
  %33 = phi ptr [ %22, %.lr.ph.preheader.i.i ], [ %22, %26 ], [ %18, %_ZNK6vectorIjLb0EjE4sizeEv.exit.i2 ]
  %34 = and i32 %1, 31
  %35 = shl nuw i32 1, %34
  %36 = zext nneg i32 %4 to i64
  %37 = getelementptr inbounds nuw i32, ptr %33, i64 %36
  %38 = load i32, ptr %37, align 4, !tbaa !9
  %39 = or i32 %38, %35
  store i32 %39, ptr %37, align 4, !tbaa !9
  ret void
}